(lp0
(dp1
Vhost
p2
ccopy_reg
_reconstructor
p3
(c__main__
Localhost
p4
c__builtin__
object
p5
Ntp6
Rp7
(dp8
Vfiles
p9
(lp10
sVstate
p11
L0L
sVusers
p12
(lp13
sVaddress
p14
V127.0.0.1
p15
sVname
p16
Vlocalhost
p17
sbsVhosts
p18
(lp19
sVuser
p20
Vroot
p21
sg17
g7
sa(lp22
Vinfo
p23
aVsave
p24
aVload
p25
aVhelp
p26
aVexit
p27
aa.